Certificate:
    Data:
        Version: 3 (0x2)
        Serial Number: 25 (0x19)
        Signature Algorithm: sha1WithRSAEncryption
        Issuer: C=CZ, ST=Prague, L=Prague, O=CZ.NIC, z.s.p.o., CN=CZ.NIC Root Certification Authority/emailAddress=ca@nic.cz
        Validity
            Not Before: Jun 12 17:53:21 2007 GMT
            Not After : Jun 11 17:53:21 2008 GMT
        Subject: C=CZ, ST=Prague, L=Prague, O=CZ.NIC, CN=REG-LRR
        Subject Public Key Info:
            Public Key Algorithm: rsaEncryption
            RSA Public Key: (4096 bit)
                Modulus (4096 bit):
                    00:d8:5e:b9:ad:3c:9c:7a:11:35:e5:38:a1:53:4e:
                    a0:bb:78:d0:57:c0:8a:7a:fa:92:e6:9c:03:df:72:
                    fa:d6:cb:9d:80:2b:e5:f8:1e:7a:26:d7:d0:b1:c9:
                    b3:5b:0b:c5:8a:18:a4:78:74:c3:6a:be:a4:b1:5e:
                    42:1f:1d:5b:a1:6d:4e:ba:de:86:9c:4d:9a:45:53:
                    8d:d5:bd:75:3e:65:a7:db:28:94:f8:2d:89:05:e7:
                    ad:f6:d2:46:30:e5:73:41:1f:63:f1:00:24:ae:0d:
                    6c:ee:10:f3:95:95:e8:3d:30:1a:ae:39:fe:12:3c:
                    57:b9:8e:56:f6:1c:3f:c2:ab:33:3b:62:85:16:00:
                    dc:6f:ba:b1:db:aa:5c:8d:58:af:e2:57:86:7f:2a:
                    b9:7e:61:54:37:9f:f5:46:ab:1f:c2:58:a6:73:57:
                    47:6f:54:0f:83:89:1c:67:e9:89:97:4c:f9:c4:8d:
                    a0:dd:0b:49:dd:02:87:44:19:ed:31:59:73:32:fa:
                    36:12:8c:7f:7e:73:86:01:56:40:58:b6:26:df:af:
                    84:e8:29:40:46:0a:ed:b3:b9:b0:30:19:87:87:34:
                    39:19:0e:64:10:63:5a:8f:c0:94:6c:71:28:bf:a1:
                    fb:3f:44:38:ff:f9:34:f7:ef:6f:06:a8:fe:c9:6d:
                    81:1f:59:19:eb:a0:cf:04:4c:f7:d8:af:88:f8:aa:
                    7a:54:66:2e:aa:ee:1a:e4:12:59:8f:47:80:81:1f:
                    1f:39:13:8c:59:86:b8:fe:7e:e1:0c:4c:90:88:f7:
                    b3:fb:71:7a:76:3a:84:17:d2:f0:af:e9:f5:99:22:
                    3e:86:85:ae:e3:b3:8b:15:3a:86:04:7a:45:0c:02:
                    69:50:55:29:3f:33:f9:c7:f1:a3:40:10:3b:00:0b:
                    a3:1e:0e:b4:5f:76:2b:4a:c8:77:4a:5b:7d:e0:93:
                    cb:23:36:68:a4:f2:ea:a6:09:c8:43:31:fd:6b:77:
                    d5:aa:1e:ed:a2:d8:9d:2f:37:6a:3b:64:7f:8f:e5:
                    6c:33:d8:79:3c:d3:e1:af:1b:ea:65:fe:8a:43:06:
                    9e:a4:01:94:7e:7e:18:74:01:c0:98:15:fa:bc:06:
                    1f:e1:01:c6:e3:b7:a9:f6:c1:7a:fc:d4:4f:b2:7a:
                    5c:49:53:05:19:b9:0f:b4:f2:54:48:3a:82:96:97:
                    89:7e:ae:a9:97:92:4d:53:5c:f4:1f:21:41:3a:93:
                    c6:39:8b:e2:fe:61:d9:33:68:09:44:b5:7e:36:67:
                    35:bd:63:df:08:f0:b9:8d:9e:70:af:ad:fc:e7:a2:
                    ba:91:65:aa:3c:cf:ea:bd:6f:dc:ca:5f:61:3d:6d:
                    ef:42:4b
                Exponent: 65537 (0x10001)
        X509v3 extensions:
            X509v3 Basic Constraints: 
                CA:FALSE
            Netscape Cert Type: 
                SSL Client, S/MIME, Object Signing
            Netscape Comment: 
                TinyCA Generated Certificate
            X509v3 Subject Key Identifier: 
                9F:3D:29:AF:BC:B4:DF:E1:B4:B9:D4:63:C3:1F:CD:76:2E:E8:F9:88
            X509v3 Authority Key Identifier: 
                keyid:F5:14:95:A6:47:34:7C:A7:B6:D4:22:FE:A4:50:49:11:09:03:78:2C
                DirName:/C=CZ/ST=Prague/L=Prague/O=CZ.NIC, z.s.p.o./CN=CZ.NIC Root Certification Authority/emailAddress=ca@nic.cz
                serial:8A:37:DF:5C:E5:2B:A7:23

            X509v3 Issuer Alternative Name: 
                email:ca@nic.cz
            X509v3 Subject Alternative Name: 
                <EMPTY>

            X509v3 Key Usage: 
                Digital Signature, Key Encipherment
    Signature Algorithm: sha1WithRSAEncryption
        67:6e:55:88:3f:d2:1b:19:b5:01:70:8c:a2:77:9f:64:41:3f:
        46:8d:93:4d:b5:6f:b2:b3:bd:21:d3:ef:f8:e2:2e:be:9c:bf:
        04:c4:62:ff:fa:c9:f2:9c:07:06:82:6a:37:0e:05:29:21:60:
        a3:0a:24:75:b1:61:52:69:ef:b3:6d:65:17:1c:b6:e0:19:ee:
        49:ff:12:f1:bc:de:c9:df:ba:ad:97:01:be:14:7e:4b:dc:8e:
        d0:3b:48:d4:82:7c:6c:d0:e0:16:07:e9:a8:bb:76:8d:f3:6c:
        1c:c6:df:47:10:72:a3:a7:29:34:86:7a:43:06:51:0a:4c:48:
        07:67:fd:58:76:87:fd:69:68:9f:0a:8a:ad:03:be:67:6c:7d:
        06:31:55:0a:ba:7b:c8:2e:25:77:7c:49:fb:0f:c0:2b:22:f9:
        c0:88:dc:48:9c:f4:9d:80:2d:f7:87:1f:b1:1d:e7:c6:fa:54:
        cf:56:f4:be:41:f6:02:51:f2:41:1d:32:a7:11:1a:4f:23:0a:
        dd:26:a9:dc:f6:b8:70:5b:67:5e:fb:34:13:c5:80:50:36:1f:
        e2:f5:fa:fd:8b:02:5c:80:c3:8d:47:15:6b:4d:58:73:2e:12:
        dc:5b:e3:2e:2d:98:cd:53:6b:43:53:fd:59:7d:d5:47:4f:ae:
        86:88:ea:51:f1:40:d2:cd:5f:fd:de:dc:42:2a:52:91:69:62:
        cd:e9:a8:39:52:ed:7e:59:94:1c:b1:f9:b0:1d:36:67:f5:a6:
        92:c4:36:b8:2e:26:2a:a5:58:ff:5a:98:cc:32:7e:95:2d:b9:
        4b:60:5a:c4:89:3e:16:8a:aa:1b:cf:aa:74:0e:fb:a3:a2:d1:
        40:46:c8:dd:49:f8:84:42:ad:89:8f:c6:a3:5a:49:2f:34:d1:
        52:0b:a5:3e:8f:a6:e2:39:b7:a3:f5:68:15:2c:ef:8d:8b:77:
        f0:ed:85:8e:62:53:60:82:ad:c0:a9:e5:b3:25:6c:54:1b:c8:
        3a:56:de:09:a2:4e:56:13:37:3a:5c:51:bd:74:14:e6:54:25:
        54:89:40:81:57:ad:19:41:e2:5b:f3:b6:3a:d8:44:fb:90:0d:
        06:c1:fd:ca:d3:49:f2:02:2e:23:9b:67:7a:5f:c4:46:62:0c:
        9d:6b:ee:4c:a7:ae:49:be:37:ab:c3:d4:a8:f4:09:fa:95:cd:
        02:13:41:22:75:b6:cb:30:21:da:c1:a2:ac:a6:07:30:65:ad:
        54:2f:46:e3:6c:af:84:c2:d8:a0:41:c3:93:9b:86:1b:72:c9:
        5f:2d:4e:f8:68:e5:4e:28:45:9f:a8:6b:1a:75:1e:53:1e:35:
        4c:3a:64:38:b7:4a:d9:f5
MD5 Fingerprint=60:7E:DF:39:62:C3:9D:3C:EB:5A:87:80:C1:73:4F:99
-----BEGIN CERTIFICATE-----
MIIGyDCCBLCgAwIBAgIBGTANBgkqhkiG9w0BAQUFADCBkjELMAkGA1UEBhMCQ1ox
DzANBgNVBAgTBlByYWd1ZTEPMA0GA1UEBxMGUHJhZ3VlMRkwFwYDVQQKExBDWi5O
SUMsIHoucy5wLm8uMSwwKgYDVQQDEyNDWi5OSUMgUm9vdCBDZXJ0aWZpY2F0aW9u
IEF1dGhvcml0eTEYMBYGCSqGSIb3DQEJARYJY2FAbmljLmN6MB4XDTA3MDYxMjE3
NTMyMVoXDTA4MDYxMTE3NTMyMVowUjELMAkGA1UEBhMCQ1oxDzANBgNVBAgTBlBy
YWd1ZTEPMA0GA1UEBxMGUHJhZ3VlMQ8wDQYDVQQKEwZDWi5OSUMxEDAOBgNVBAMT
B1JFRy1MUlIwggIiMA0GCSqGSIb3DQEBAQUAA4ICDwAwggIKAoICAQDYXrmtPJx6
ETXlOKFTTqC7eNBXwIp6+pLmnAPfcvrWy52AK+X4Hnom19CxybNbC8WKGKR4dMNq
vqSxXkIfHVuhbU663oacTZpFU43VvXU+ZafbKJT4LYkF56320kYw5XNBH2PxACSu
DWzuEPOVleg9MBquOf4SPFe5jlb2HD/CqzM7YoUWANxvurHbqlyNWK/iV4Z/Krl+
YVQ3n/VGqx/CWKZzV0dvVA+DiRxn6YmXTPnEjaDdC0ndAodEGe0xWXMy+jYSjH9+
c4YBVkBYtibfr4ToKUBGCu2zubAwGYeHNDkZDmQQY1qPwJRscSi/ofs/RDj/+TT3
728GqP7JbYEfWRnroM8ETPfYr4j4qnpUZi6q7hrkElmPR4CBHx85E4xZhrj+fuEM
TJCI97P7cXp2OoQX0vCv6fWZIj6Gha7js4sVOoYEekUMAmlQVSk/M/nH8aNAEDsA
C6MeDrRfditKyHdKW33gk8sjNmik8uqmCchDMf1rd9WqHu2i2J0vN2o7ZH+P5Wwz
2Hk80+GvG+pl/opDBp6kAZR+fhh0AcCYFfq8Bh/hAcbjt6n2wXr81E+yelxJUwUZ
uQ+08lRIOoKWl4l+rqmXkk1TXPQfIUE6k8Y5i+L+YdkzaAlEtX42ZzW9Y98I8LmN
nnCvrfznorqRZao8z+q9b9zKX2E9be9CSwIDAQABo4IBZjCCAWIwCQYDVR0TBAIw
ADARBglghkgBhvhCAQEEBAMCBLAwKwYJYIZIAYb4QgENBB4WHFRpbnlDQSBHZW5l
cmF0ZWQgQ2VydGlmaWNhdGUwHQYDVR0OBBYEFJ89Ka+8tN/htLnUY8MfzXYu6PmI
MIHHBgNVHSMEgb8wgbyAFPUUlaZHNHynttQi/qRQSREJA3gsoYGYpIGVMIGSMQsw
CQYDVQQGEwJDWjEPMA0GA1UECBMGUHJhZ3VlMQ8wDQYDVQQHEwZQcmFndWUxGTAX
BgNVBAoTEENaLk5JQywgei5zLnAuby4xLDAqBgNVBAMTI0NaLk5JQyBSb290IENl
cnRpZmljYXRpb24gQXV0aG9yaXR5MRgwFgYJKoZIhvcNAQkBFgljYUBuaWMuY3qC
CQCKN99c5SunIzAUBgNVHRIEDTALgQljYUBuaWMuY3owCQYDVR0RBAIwADALBgNV
HQ8EBAMCBaAwDQYJKoZIhvcNAQEFBQADggIBAGduVYg/0hsZtQFwjKJ3n2RBP0aN
k021b7KzvSHT7/jiLr6cvwTEYv/6yfKcBwaCajcOBSkhYKMKJHWxYVJp77NtZRcc
tuAZ7kn/EvG83snfuq2XAb4UfkvcjtA7SNSCfGzQ4BYH6ai7do3zbBzG30cQcqOn
KTSGekMGUQpMSAdn/Vh2h/1paJ8Kiq0DvmdsfQYxVQq6e8guJXd8SfsPwCsi+cCI
3Eic9J2ALfeHH7Ed58b6VM9W9L5B9gJR8kEdMqcRGk8jCt0mqdz2uHBbZ177NBPF
gFA2H+L1+v2LAlyAw41HFWtNWHMuEtxb4y4tmM1Ta0NT/Vl91UdProaI6lHxQNLN
X/3e3EIqUpFpYs3pqDlS7X5ZlByx+bAdNmf1ppLENrguJiqlWP9amMwyfpUtuUtg
WsSJPhaKqhvPqnQO+6Oi0UBGyN1J+IRCrYmPxqNaSS800VILpT6PpuI5t6P1aBUs
742Ld/DthY5iU2CCrcCp5bMlbFQbyDpW3gmiTlYTNzpcUb10FOZUJVSJQIFXrRlB
4lvztjrYRPuQDQbB/crTSfICLiObZ3pfxEZiDJ1r7kynrkm+N6vD1Kj0CfqVzQIT
QSJ1tsswIdrBoqymBzBlrVQvRuNsr4TC2KBBw5ObhhtyyV8tTvho5U4oRZ+oaxp1
HlMeNUw6ZDi3Stn1
-----END CERTIFICATE-----
