Certificate:
    Data:
        Version: 3 (0x2)
        Serial Number: 0 (0x0)
        Signature Algorithm: sha1WithRSAEncryption
        Issuer: C=CZ, ST=Czech Republic, L=Prague, O=CZ.NIC z.s.p.o., OU=Registry, CN=ccreg/emailAddress=ccreg@nic.cz
        Validity
            Not Before: Jul 14 13:29:01 2006 GMT
            Not After : Jul 14 13:29:01 2007 GMT
        Subject: C=CZ, ST=Czech Republic, L=Prague, O=CZ.NIC z.s.p.o., OU=Registrar, CN=lrr/emailAddress=ccreg@nic.cz
        Subject Public Key Info:
            Public Key Algorithm: rsaEncryption
            RSA Public Key: (1024 bit)
                Modulus (1024 bit):
                    00:9f:57:70:c5:54:46:5e:02:d0:b9:ce:a7:23:e7:
                    da:21:df:00:22:2a:81:47:2a:f4:7d:88:39:3a:8c:
                    c4:2d:07:f3:36:f3:9e:dc:78:f2:80:61:32:ec:55:
                    c9:2c:f2:28:c5:23:4d:f6:e5:d7:bd:3b:87:c9:35:
                    25:6e:f0:7c:a4:73:c9:28:60:6a:b1:12:66:6a:88:
                    a2:91:f1:cf:b1:46:8f:3a:19:80:63:48:92:c8:82:
                    2d:8d:3b:51:9b:1f:6e:f7:31:dd:e9:b6:e0:9a:63:
                    7e:2f:21:d0:28:48:b3:1f:25:ef:78:f7:d8:ba:10:
                    f1:21:3d:83:c0:04:8a:3b:03
                Exponent: 65537 (0x10001)
        X509v3 extensions:
            X509v3 Basic Constraints: 
                CA:FALSE
            Netscape Comment: 
                OpenSSL Generated Certificate
            X509v3 Subject Key Identifier: 
                A3:8A:79:22:5D:28:D2:98:03:65:E8:9B:0C:94:AF:31:51:6C:31:17
            X509v3 Authority Key Identifier: 
                keyid:FF:C1:92:8D:00:BA:91:51:F7:40:22:62:CC:E1:87:39:DF:42:8A:32

    Signature Algorithm: sha1WithRSAEncryption
        a1:f5:fe:3a:72:20:46:cf:ce:6b:16:66:00:9c:e7:f5:bd:94:
        74:1e:ee:4f:94:ed:2f:cd:e2:52:f4:9b:c3:34:92:0a:2f:04:
        dc:2e:04:e0:f5:99:f7:12:46:85:8e:de:29:3b:d0:c0:53:c9:
        63:39:43:42:da:23:ba:ab:93:a1:c5:47:0f:a9:7a:40:a6:1c:
        b3:06:87:b8:0b:42:35:6b:db:3c:2f:c2:64:d3:58:ed:f4:82:
        2e:2f:80:55:a2:51:85:05:3b:46:d6:c6:f8:5b:0a:d8:1f:6f:
        67:6c:ef:c7:21:4d:d6:35:a7:4e:3e:4a:7b:ab:20:b4:dc:aa:
        85:b1
-----BEGIN CERTIFICATE-----
MIIDFDCCAn2gAwIBAgIBADANBgkqhkiG9w0BAQUFADCBkTELMAkGA1UEBhMCQ1ox
FzAVBgNVBAgTDkN6ZWNoIFJlcHVibGljMQ8wDQYDVQQHEwZQcmFndWUxGDAWBgNV
BAoTD0NaLk5JQyB6LnMucC5vLjERMA8GA1UECxMIUmVnaXN0cnkxDjAMBgNVBAMT
BWNjcmVnMRswGQYJKoZIhvcNAQkBFgxjY3JlZ0BuaWMuY3owHhcNMDYwNzE0MTMy
OTAxWhcNMDcwNzE0MTMyOTAxWjCBkDELMAkGA1UEBhMCQ1oxFzAVBgNVBAgTDkN6
ZWNoIFJlcHVibGljMQ8wDQYDVQQHEwZQcmFndWUxGDAWBgNVBAoTD0NaLk5JQyB6
LnMucC5vLjESMBAGA1UECxMJUmVnaXN0cmFyMQwwCgYDVQQDEwNscnIxGzAZBgkq
hkiG9w0BCQEWDGNjcmVnQG5pYy5jejCBnzANBgkqhkiG9w0BAQEFAAOBjQAwgYkC
gYEAn1dwxVRGXgLQuc6nI+faId8AIiqBRyr0fYg5OozELQfzNvOe3HjygGEy7FXJ
LPIoxSNN9uXXvTuHyTUlbvB8pHPJKGBqsRJmaoiikfHPsUaPOhmAY0iSyIItjTtR
mx9u9zHd6bbgmmN+LyHQKEizHyXvePfYuhDxIT2DwASKOwMCAwEAAaN7MHkwCQYD
VR0TBAIwADAsBglghkgBhvhCAQ0EHxYdT3BlblNTTCBHZW5lcmF0ZWQgQ2VydGlm
aWNhdGUwHQYDVR0OBBYEFKOKeSJdKNKYA2XomwyUrzFRbDEXMB8GA1UdIwQYMBaA
FP/Bko0AupFR90AiYszhhznfQooyMA0GCSqGSIb3DQEBBQUAA4GBAKH1/jpyIEbP
zmsWZgCc5/W9lHQe7k+U7S/N4lL0m8M0kgovBNwuBOD1mfcSRoWO3ik70MBTyWM5
Q0LaI7qrk6HFRw+pekCmHLMGh7gLQjVr2zwvwmTTWO30gi4vgFWiUYUFO0bWxvhb
Ctgfb2ds78chTdY1p04+SnurILTcqoWx
-----END CERTIFICATE-----
